; Function Attrs: mustprogress nofree norecurse nosync nounwind willreturn memory(argmem: read) uwtable
define noundef zeroext i1 @_ZNK32pxrInternal_v0_24__pxrReserved__7GfVec3ieqERKNS_7GfVec3fE(ptr nocapture noundef nonnull readonly align 4 dereferenceable(12) %0, ptr nocapture noundef nonnull readonly align 4 dereferenceable(12) %1) local_unnamed_addr #2 align 2 {
  %3 = load i32, ptr %0, align 4
  %4 = sitofp i32 %3 to float
  %5 = load float, ptr %1, align 4
  %6 = fcmp oeq float %5, %4
  br i1 %6, label %7, label %21

7:                                                ; preds = %2
  %8 = getelementptr inbounds i8, ptr %0, i64 4
  %9 = load i32, ptr %8, align 4
  %10 = sitofp i32 %9 to float
  %11 = getelementptr inbounds i8, ptr %1, i64 4
  %12 = load float, ptr %11, align 4
  %13 = fcmp oeq float %12, %10
  br i1 %13, label %14, label %21

14:                                               ; preds = %7
  %15 = getelementptr inbounds i8, ptr %0, i64 8
  %16 = load i32, ptr %15, align 4
  %17 = sitofp i32 %16 to float
  %18 = getelementptr inbounds i8, ptr %1, i64 8
  %19 = load float, ptr %18, align 4
  %20 = fcmp oeq float %19, %17
  br label %21

21:                                               ; preds = %14, %7, %2
  %22 = phi i1 [ false, %7 ], [ false, %2 ], [ %20, %14 ]
  ret i1 %22
}